target datalayout = "e-m:e-p270:32:32-p271:32:32-p272:64:64-i64:64-i128:128-f80:128-n8:16:32:64-S128"
target triple = "x86_64-pc-linux-gnu"

@.str.73 = private unnamed_addr constant [16 x i8] c"PaxHeader/blank\00", align 1
@.str.74 = private unnamed_addr constant [19 x i8] c"/PaxHeader/rootdir\00", align 1
@.str.75 = private unnamed_addr constant [21 x i8] c"PaxHeader/currentdir\00", align 1
@.str.76 = private unnamed_addr constant [10 x i8] c"PaxHeader\00", align 1

; Function Attrs: nounwind uwtable
define internal ptr @build_pax_attribute_name(ptr noundef %0, ptr noundef %1) #0 {
  %3 = alloca ptr, align 8
  %4 = alloca ptr, align 8
  %5 = alloca ptr, align 8
  %6 = alloca [64 x i8], align 16
  %7 = alloca ptr, align 8
  store ptr %0, ptr %4, align 8
  store ptr %1, ptr %5, align 8
  %8 = load ptr, ptr %5, align 8
  %9 = icmp eq ptr %8, null
  br i1 %9, label %15, label %10

10:                                               ; preds = %2
  %11 = load ptr, ptr %5, align 8
  %12 = load i8, ptr %11, align 1
  %13 = sext i8 %12 to i32
  %14 = icmp eq i32 %13, 0
  br i1 %14, label %15, label %19

15:                                               ; preds = %10, %2
  %16 = load ptr, ptr %4, align 8
  %17 = call ptr @strcpy(ptr noundef %16, ptr noundef @.str.73) #11
  %18 = load ptr, ptr %4, align 8
  store ptr %18, ptr %3, align 8
  br label %93

19:                                               ; preds = %10
  %20 = load ptr, ptr %5, align 8
  %21 = load ptr, ptr %5, align 8
  %22 = call i64 @strlen(ptr noundef %21) #9
  %23 = getelementptr inbounds i8, ptr %20, i64 %22
  store ptr %23, ptr %7, align 8
  br label %24

24:                                               ; preds = %54, %34, %19
  %25 = load ptr, ptr %7, align 8
  %26 = load ptr, ptr %5, align 8
  %27 = icmp ugt ptr %25, %26
  br i1 %27, label %28, label %37

28:                                               ; preds = %24
  %29 = load ptr, ptr %7, align 8
  %30 = getelementptr inbounds i8, ptr %29, i64 -1
  %31 = load i8, ptr %30, align 1
  %32 = sext i8 %31 to i32
  %33 = icmp eq i32 %32, 47
  br i1 %33, label %34, label %37

34:                                               ; preds = %28
  %35 = load ptr, ptr %7, align 8
  %36 = getelementptr inbounds i8, ptr %35, i32 -1
  store ptr %36, ptr %7, align 8
  br label %24

37:                                               ; preds = %28, %24
  %38 = load ptr, ptr %7, align 8
  %39 = load ptr, ptr %5, align 8
  %40 = getelementptr inbounds i8, ptr %39, i64 1
  %41 = icmp ugt ptr %38, %40
  br i1 %41, label %42, label %57

42:                                               ; preds = %37
  %43 = load ptr, ptr %7, align 8
  %44 = getelementptr inbounds i8, ptr %43, i64 -1
  %45 = load i8, ptr %44, align 1
  %46 = sext i8 %45 to i32
  %47 = icmp eq i32 %46, 46
  br i1 %47, label %48, label %57

48:                                               ; preds = %42
  %49 = load ptr, ptr %7, align 8
  %50 = getelementptr inbounds i8, ptr %49, i64 -2
  %51 = load i8, ptr %50, align 1
  %52 = sext i8 %51 to i32
  %53 = icmp eq i32 %52, 47
  br i1 %53, label %54, label %57

54:                                               ; preds = %48
  %55 = load ptr, ptr %7, align 8
  %56 = getelementptr inbounds i8, ptr %55, i32 -1
  store ptr %56, ptr %7, align 8
  br label %24

57:                                               ; preds = %48, %42, %37
  br label %58

58:                                               ; preds = %57
  %59 = load ptr, ptr %7, align 8
  %60 = load ptr, ptr %5, align 8
  %61 = icmp eq ptr %59, %60
  br i1 %61, label %62, label %66

62:                                               ; preds = %58
  %63 = load ptr, ptr %4, align 8
  %64 = call ptr @strcpy(ptr noundef %63, ptr noundef @.str.74) #11
  %65 = load ptr, ptr %4, align 8
  store ptr %65, ptr %3, align 8
  br label %93

66:                                               ; preds = %58
  %67 = load ptr, ptr %5, align 8
  %68 = load i8, ptr %67, align 1
  %69 = sext i8 %68 to i32
  %70 = icmp eq i32 %69, 46
  br i1 %70, label %71, label %80

71:                                               ; preds = %66
  %72 = load ptr, ptr %7, align 8
  %73 = load ptr, ptr %5, align 8
  %74 = getelementptr inbounds i8, ptr %73, i64 1
  %75 = icmp eq ptr %72, %74
  br i1 %75, label %76, label %80

76:                                               ; preds = %71
  %77 = load ptr, ptr %4, align 8
  %78 = call ptr @strcpy(ptr noundef %77, ptr noundef @.str.75) #11
  %79 = load ptr, ptr %4, align 8
  store ptr %79, ptr %3, align 8
  br label %93

80:                                               ; preds = %71, %66
  %81 = getelementptr inbounds [64 x i8], ptr %6, i64 0, i64 0
  %82 = call ptr @strcpy(ptr noundef %81, ptr noundef @.str.76) #11
  %83 = load ptr, ptr %4, align 8
  %84 = load ptr, ptr %5, align 8
  %85 = load ptr, ptr %7, align 8
  %86 = load ptr, ptr %5, align 8
  %87 = ptrtoint ptr %85 to i64
  %88 = ptrtoint ptr %86 to i64
  %89 = sub i64 %87, %88
  %90 = getelementptr inbounds [64 x i8], ptr %6, i64 0, i64 0
  %91 = call ptr @build_ustar_entry_name(ptr noundef %83, ptr noundef %84, i64 noundef %89, ptr noundef %90)
  %92 = load ptr, ptr %4, align 8
  store ptr %92, ptr %3, align 8
  br label %93

93:                                               ; preds = %80, %76, %62, %15
  %94 = load ptr, ptr %3, align 8
  ret ptr %94
}