; Function Attrs: nofree nounwind memory(read, argmem: readwrite, inaccessiblemem: none) uwtable
define internal fastcc noundef nonnull ptr @build_pax_attribute_name(ptr noundef nonnull returned %0, ptr noundef %1) unnamed_addr #8 {
  %3 = alloca [64 x i8], align 16
  %4 = icmp eq ptr %1, null
  br i1 %4, label %8, label %5

5:                                                ; preds = %2
  %6 = load i8, ptr %1, align 1
  %7 = icmp eq i8 %6, 0
  br i1 %7, label %8, label %9

8:                                                ; preds = %5, %2
  tail call void @llvm.memcpy.p0.p0.i64(ptr noundef nonnull align 1 dereferenceable(16) %0, ptr noundef nonnull align 1 dereferenceable(16) @.str.73, i64 16, i1 false) #15
  br label %26

9:                                                ; preds = %5
  %10 = tail call i64 @strlen(ptr noundef nonnull dereferenceable(1) %1) #17
  %invariant.gep = getelementptr i8, ptr %1, i64 -2
  %11 = icmp sgt i64 %10, 0
  br i1 %11, label %.lr.ph, label %._crit_edge

.lr.ph:                                           ; preds = %9, %.backedge
  %.0.idx44 = phi i64 [ %.0.add32, %.backedge ], [ %10, %9 ]
  %.0.add32 = add nsw i64 %.0.idx44, -1
  %.ptr33 = getelementptr inbounds i8, ptr %1, i64 %.0.add32
  %12 = load i8, ptr %.ptr33, align 1
  %13 = icmp eq i8 %12, 47
  br i1 %13, label %.backedge, label %15

.backedge:                                        ; preds = %.lr.ph, %18
  %14 = icmp samesign ugt i64 %.0.idx44, 1
  br i1 %14, label %.lr.ph, label %._crit_edge.thread

15:                                               ; preds = %.lr.ph
  %.not = icmp eq i64 %.0.idx44, 1
  br i1 %.not, label %22, label %16

16:                                               ; preds = %15
  %17 = icmp eq i8 %12, 46
  br i1 %17, label %18, label %.thread36

18:                                               ; preds = %16
  %gep = getelementptr i8, ptr %invariant.gep, i64 %.0.idx44
  %19 = load i8, ptr %gep, align 1
  %20 = icmp eq i8 %19, 47
  br i1 %20, label %.backedge, label %.thread36

._crit_edge:                                      ; preds = %9
  %21 = icmp eq i64 %10, 0
  br i1 %21, label %._crit_edge.thread, label %.thread36

._crit_edge.thread:                               ; preds = %.backedge, %._crit_edge
  tail call void @llvm.memcpy.p0.p0.i64(ptr noundef nonnull align 1 dereferenceable(19) %0, ptr noundef nonnull align 1 dereferenceable(19) @.str.74, i64 19, i1 false) #15
  br label %26

22:                                               ; preds = %15
  %23 = icmp eq i8 %6, 46
  br i1 %23, label %24, label %.thread36

24:                                               ; preds = %22
  tail call void @llvm.memcpy.p0.p0.i64(ptr noundef nonnull align 1 dereferenceable(21) %0, ptr noundef nonnull align 1 dereferenceable(21) @.str.75, i64 21, i1 false) #15
  br label %26

.thread36:                                        ; preds = %18, %16, %._crit_edge, %22
  %.0.idx43 = phi i64 [ %10, %._crit_edge ], [ 1, %22 ], [ %.0.idx44, %16 ], [ %.0.idx44, %18 ]
  call void @llvm.memcpy.p0.p0.i64(ptr noundef nonnull align 16 dereferenceable(10) %3, ptr noundef nonnull align 1 dereferenceable(10) @.str.76, i64 10, i1 false) #15
  %25 = call fastcc ptr @build_ustar_entry_name(ptr noundef %0, ptr noundef nonnull %1, i64 noundef %.0.idx43, ptr noundef nonnull %3)
  br label %26

26:                                               ; preds = %.thread36, %24, %._crit_edge.thread, %8
  ret ptr %0
}